target datalayout = "e-m:e-p270:32:32-p271:32:32-p272:64:64-i64:64-i128:128-f80:128-n8:16:32:64-S128"
target triple = "x86_64-pc-linux-gnu"

%struct.FT_CMap_ClassRec_ = type { i64, ptr, ptr, ptr, ptr, ptr, ptr, ptr, ptr, ptr }
%struct.FT_Service_TTCMapsRec_ = type { ptr }
%struct.FT_CMapRec_ = type { %struct.FT_CharMapRec_, ptr }
%struct.FT_CharMapRec_ = type { ptr, i32, i16, i16 }
%struct.FT_FaceRec_ = type { i64, i64, i64, i64, i64, ptr, ptr, i32, ptr, i32, ptr, %struct.FT_Generic_, %struct.FT_BBox_, i16, i16, i16, i16, i16, i16, i16, i16, ptr, ptr, ptr, ptr, ptr, ptr, %struct.FT_ListRec_, %struct.FT_Generic_, ptr, ptr }
%struct.FT_BBox_ = type { i64, i64, i64, i64 }
%struct.FT_ListRec_ = type { ptr, ptr }
%struct.FT_Generic_ = type { ptr, ptr }
%struct.FT_DriverRec_ = type { %struct.FT_ModuleRec_, ptr, %struct.FT_ListRec_, ptr }
%struct.FT_ModuleRec_ = type { ptr, ptr, ptr }

@cff_cmap_encoding_class_rec = hidden constant %struct.FT_CMap_ClassRec_ { i64 32, ptr @cff_cmap_encoding_init, ptr @cff_cmap_encoding_done, ptr @cff_cmap_encoding_char_index, ptr @cff_cmap_encoding_char_next, ptr null, ptr null, ptr null, ptr null, ptr null }, align 8
@cff_cmap_unicode_class_rec = hidden constant %struct.FT_CMap_ClassRec_ { i64 40, ptr @cff_cmap_unicode_init, ptr @cff_cmap_unicode_done, ptr @cff_cmap_unicode_char_index, ptr @cff_cmap_unicode_char_next, ptr null, ptr null, ptr null, ptr null, ptr null }, align 8
@.str.1 = private unnamed_addr constant [5 x i8] c"sfnt\00", align 1
@.str.9 = private unnamed_addr constant [9 x i8] c"tt-cmaps\00", align 1

; Function Attrs: nounwind uwtable
define internal i32 @cff_get_cmap_info(ptr noundef %0, ptr noundef %1) #0 {
  %3 = alloca ptr, align 8
  %4 = alloca ptr, align 8
  %5 = alloca ptr, align 8
  %6 = alloca i32, align 4
  %7 = alloca ptr, align 8
  %8 = alloca ptr, align 8
  %9 = alloca ptr, align 8
  %10 = alloca ptr, align 8
  store ptr %0, ptr %3, align 8
  store ptr %1, ptr %4, align 8
  %11 = load ptr, ptr %3, align 8
  store ptr %11, ptr %5, align 8
  store i32 0, ptr %6, align 4
  %12 = load ptr, ptr %5, align 8
  %13 = getelementptr inbounds %struct.FT_CMapRec_, ptr %12, i32 0, i32 0
  %14 = getelementptr inbounds %struct.FT_CharMapRec_, ptr %13, i32 0, i32 0
  %15 = load ptr, ptr %14, align 8
  store ptr %15, ptr %7, align 8
  %16 = load ptr, ptr %7, align 8
  %17 = getelementptr inbounds %struct.FT_FaceRec_, ptr %16, i32 0, i32 24
  %18 = load ptr, ptr %17, align 8
  %19 = getelementptr inbounds %struct.FT_DriverRec_, ptr %18, i32 0, i32 0
  %20 = getelementptr inbounds %struct.FT_ModuleRec_, ptr %19, i32 0, i32 1
  %21 = load ptr, ptr %20, align 8
  store ptr %21, ptr %8, align 8
  %22 = load ptr, ptr %5, align 8
  %23 = getelementptr inbounds %struct.FT_CMapRec_, ptr %22, i32 0, i32 1
  %24 = load ptr, ptr %23, align 8
  %25 = icmp ne ptr %24, @cff_cmap_encoding_class_rec
  br i1 %25, label %26, label %51

26:                                               ; preds = %2
  %27 = load ptr, ptr %5, align 8
  %28 = getelementptr inbounds %struct.FT_CMapRec_, ptr %27, i32 0, i32 1
  %29 = load ptr, ptr %28, align 8
  %30 = icmp ne ptr %29, @cff_cmap_unicode_class_rec
  br i1 %30, label %31, label %51

31:                                               ; preds = %26
  %32 = load ptr, ptr %8, align 8
  %33 = call ptr @FT_Get_Module(ptr noundef %32, ptr noundef @.str.1)
  store ptr %33, ptr %9, align 8
  %34 = load ptr, ptr %9, align 8
  %35 = call ptr @ft_module_get_service(ptr noundef %34, ptr noundef @.str.9, i8 noundef zeroext 0)
  store ptr %35, ptr %10, align 8
  %36 = load ptr, ptr %10, align 8
  %37 = icmp ne ptr %36, null
  br i1 %37, label %38, label %50

38:                                               ; preds = %31
  %39 = load ptr, ptr %10, align 8
  %40 = getelementptr inbounds %struct.FT_Service_TTCMapsRec_, ptr %39, i32 0, i32 0
  %41 = load ptr, ptr %40, align 8
  %42 = icmp ne ptr %41, null
  br i1 %42, label %43, label %50

43:                                               ; preds = %38
  %44 = load ptr, ptr %10, align 8
  %45 = getelementptr inbounds %struct.FT_Service_TTCMapsRec_, ptr %44, i32 0, i32 0
  %46 = load ptr, ptr %45, align 8
  %47 = load ptr, ptr %3, align 8
  %48 = load ptr, ptr %4, align 8
  %49 = call i32 %46(ptr noundef %47, ptr noundef %48)
  store i32 %49, ptr %6, align 4
  br label %50

50:                                               ; preds = %43, %38, %31
  br label %52

51:                                               ; preds = %26, %2
  store i32 150, ptr %6, align 4
  br label %52

52:                                               ; preds = %51, %50
  %53 = load i32, ptr %6, align 4
  ret i32 %53
}