; Function Attrs: nounwind uwtable
define internal i32 @cff_get_cmap_info(ptr noundef %0, ptr noundef %1) #4 {
  %3 = getelementptr inbounds i8, ptr %0, i64 16
  %4 = load ptr, ptr %3, align 8
  %.not = icmp eq ptr %4, @cff_cmap_encoding_class_rec
  %.not15 = icmp eq ptr %4, @cff_cmap_unicode_class_rec
  %or.cond = or i1 %.not, %.not15
  br i1 %or.cond, label %17, label %5

5:                                                ; preds = %2
  %6 = load ptr, ptr %0, align 8
  %7 = getelementptr inbounds i8, ptr %6, i64 176
  %8 = load ptr, ptr %7, align 8
  %9 = getelementptr inbounds i8, ptr %8, i64 8
  %10 = load ptr, ptr %9, align 8
  %11 = tail call ptr @FT_Get_Module(ptr noundef %10, ptr noundef nonnull @.str.1) #20
  %12 = tail call ptr @ft_module_get_service(ptr noundef %11, ptr noundef nonnull @.str.9, i8 noundef zeroext 0) #20
  %.not16 = icmp eq ptr %12, null
  br i1 %.not16, label %17, label %13

13:                                               ; preds = %5
  %14 = load ptr, ptr %12, align 8
  %.not17 = icmp eq ptr %14, null
  br i1 %.not17, label %17, label %15

15:                                               ; preds = %13
  %16 = tail call i32 %14(ptr noundef nonnull %0, ptr noundef %1) #20
  br label %17

17:                                               ; preds = %2, %5, %13, %15
  %.0 = phi i32 [ %16, %15 ], [ 0, %13 ], [ 0, %5 ], [ 150, %2 ]
  ret i32 %.0
}